; Function Attrs: nounwind uwtable
define internal fastcc void @HIDAPI_CleanupDeviceDriver(ptr noundef nonnull %0) unnamed_addr #0 {
  %2 = getelementptr inbounds nuw i8, ptr %0, i64 104
  %3 = load ptr, ptr %2, align 8
  %.not = icmp eq ptr %3, null
  br i1 %.not, label %26, label %.preheader

.preheader:                                       ; preds = %1
  %4 = getelementptr inbounds nuw i8, ptr %0, i64 144
  %5 = getelementptr inbounds nuw i8, ptr %0, i64 140
  %6 = load i32, ptr %5, align 4
  %.not1822 = icmp eq i32 %6, 0
  br i1 %.not1822, label %.critedge, label %.lr.ph

.lr.ph:                                           ; preds = %.preheader, %8
  %7 = load ptr, ptr %4, align 8
  %.not19 = icmp eq ptr %7, null
  br i1 %.not19, label %.critedge.loopexit, label %8

8:                                                ; preds = %.lr.ph
  %9 = load i32, ptr %7, align 4
  tail call void @HIDAPI_JoystickDisconnected(ptr noundef nonnull %0, i32 noundef %9)
  %10 = load i32, ptr %5, align 4
  %.not18 = icmp eq i32 %10, 0
  br i1 %.not18, label %.critedge.loopexit, label %.lr.ph, !llvm.loop !50

.critedge.loopexit:                               ; preds = %8, %.lr.ph
  %.pre = load ptr, ptr %2, align 8
  br label %.critedge

.critedge:                                        ; preds = %.critedge.loopexit, %.preheader
  %11 = phi ptr [ %.pre, %.critedge.loopexit ], [ %3, %.preheader ]
  %12 = getelementptr inbounds nuw i8, ptr %11, i64 144
  %13 = load ptr, ptr %12, align 8
  tail call void %13(ptr noundef nonnull %0) #9
  store ptr null, ptr %2, align 8
  %14 = getelementptr inbounds nuw i8, ptr %0, i64 120
  %15 = load ptr, ptr %14, align 8
  tail call void @SDL_LockMutex_REAL(ptr noundef %15) #9
  %16 = getelementptr inbounds nuw i8, ptr %0, i64 128
  %17 = load ptr, ptr %16, align 8
  %.not20 = icmp eq ptr %17, null
  br i1 %.not20, label %20, label %18

18:                                               ; preds = %.critedge
  %19 = tail call i32 @SDL_hid_close_REAL(ptr noundef nonnull %17) #9
  store ptr null, ptr %16, align 8
  br label %20

20:                                               ; preds = %18, %.critedge
  %21 = getelementptr inbounds nuw i8, ptr %0, i64 112
  %22 = load ptr, ptr %21, align 8
  %.not21 = icmp eq ptr %22, null
  br i1 %.not21, label %24, label %23

23:                                               ; preds = %20
  tail call void @SDL_free_REAL(ptr noundef nonnull %22) #9
  store ptr null, ptr %21, align 8
  br label %24

24:                                               ; preds = %23, %20
  %25 = load ptr, ptr %14, align 8
  tail call void @SDL_UnlockMutex_REAL(ptr noundef %25) #9
  br label %26

26:                                               ; preds = %1, %24
  ret void
}